target datalayout = "e-m:e-p270:32:32-p271:32:32-p272:64:64-i64:64-i128:128-f80:128-n8:16:32:64-S128"
target triple = "x86_64-pc-linux-gnu"

%"class.OpenImageIO::v3_1_0::span" = type { ptr, i64 }
%"struct.OpenImageIO::v3_1_0::ROI" = type { i32, i32, i32, i32, i32, i32, i32, i32 }
%"class.OpenImageIO::v3_1_0::paropt" = type <{ i32, i16, i16, i64, ptr, i8, [7 x i8] }>
%"class.std::function" = type { %"class.std::_Function_base", ptr }
%"class.std::_Function_base" = type { %"union.std::_Any_data", ptr }
%"union.std::_Any_data" = type { %"union.std::_Nocopy_types" }
%"union.std::_Nocopy_types" = type { { i64, i64 } }
%class.anon.182 = type { ptr, ptr, ptr, ptr }

; Function Attrs: mustprogress nounwind uwtable
define linkonce_odr noundef ptr @_ZNSt9_Any_data9_M_accessEv(ptr noundef nonnull align 8 dereferenceable(16) %0) #8 comdat align 2 {
  %2 = alloca ptr, align 8
  store ptr %0, ptr %2, align 8, !tbaa !784
  %3 = load ptr, ptr %2, align 8
  %4 = getelementptr inbounds [16 x i8], ptr %3, i64 0, i64 0
  ret ptr %4
}

; Function Attrs: mustprogress nounwind uwtable
define internal noundef nonnull align 8 dereferenceable(8) ptr @_ZNSt9_Any_data9_M_accessIPZN11OpenImageIO6v3_1_0L12mad_impl_iccIhhEEbRNS2_8ImageBufERKS4_NS2_4spanIKfLm18446744073709551615EEESA_NS2_3ROIEiEUlSB_E_EERT_v(ptr noundef nonnull align 8 dereferenceable(16) %0) #8 align 2 {
  %2 = alloca ptr, align 8
  store ptr %0, ptr %2, align 8, !tbaa !784
  %3 = load ptr, ptr %2, align 8
  %4 = call noundef ptr @_ZNSt9_Any_data9_M_accessEv(ptr noundef nonnull align 8 dereferenceable(16) %3) #3
  ret ptr %4
}

; Function Attrs: mustprogress uwtable
define internal void @_ZNSt14_Function_base13_Base_managerIZN11OpenImageIO6v3_1_0L12mad_impl_iccIhhEEbRNS2_8ImageBufERKS4_NS2_4spanIKfLm18446744073709551615EEESA_NS2_3ROIEiEUlSB_E_E9_M_createISC_EEvRSt9_Any_dataOT_St17integral_constantIbLb0EE(ptr noundef nonnull align 8 dereferenceable(16) %0, ptr noundef nonnull align 8 dereferenceable(32) %1) #6 align 2 {
  %3 = alloca ptr, align 8
  %4 = alloca ptr, align 8
  store ptr %0, ptr %3, align 8, !tbaa !784
  store ptr %1, ptr %4, align 8, !tbaa !132
  %5 = call noalias noundef nonnull ptr @_Znwm(i64 noundef 32) #26
  %6 = load ptr, ptr %4, align 8, !tbaa !132
  call void @llvm.memcpy.p0.p0.i64(ptr align 16 %5, ptr align 8 %6, i64 32, i1 false), !tbaa.struct !1140
  %7 = load ptr, ptr %3, align 8, !tbaa !784
  %8 = call noundef nonnull align 8 dereferenceable(8) ptr @_ZNSt9_Any_data9_M_accessIPZN11OpenImageIO6v3_1_0L12mad_impl_iccIhhEEbRNS2_8ImageBufERKS4_NS2_4spanIKfLm18446744073709551615EEESA_NS2_3ROIEiEUlSB_E_EERT_v(ptr noundef nonnull align 8 dereferenceable(16) %7) #3
  store ptr %5, ptr %8, align 8, !tbaa !132
  ret void
}

; Function Attrs: mustprogress uwtable
define internal void @_ZNSt14_Function_base13_Base_managerIZN11OpenImageIO6v3_1_0L12mad_impl_iccIhhEEbRNS2_8ImageBufERKS4_NS2_4spanIKfLm18446744073709551615EEESA_NS2_3ROIEiEUlSB_E_E15_M_init_functorISC_EEvRSt9_Any_dataOT_(ptr noundef nonnull align 8 dereferenceable(16) %0, ptr noundef nonnull align 8 dereferenceable(32) %1) #6 align 2 {
  %3 = alloca ptr, align 8
  %4 = alloca ptr, align 8
  store ptr %0, ptr %3, align 8, !tbaa !784
  store ptr %1, ptr %4, align 8, !tbaa !132
  %5 = load ptr, ptr %3, align 8, !tbaa !784
  %6 = load ptr, ptr %4, align 8, !tbaa !132
  call void @_ZNSt14_Function_base13_Base_managerIZN11OpenImageIO6v3_1_0L12mad_impl_iccIhhEEbRNS2_8ImageBufERKS4_NS2_4spanIKfLm18446744073709551615EEESA_NS2_3ROIEiEUlSB_E_E9_M_createISC_EEvRSt9_Any_dataOT_St17integral_constantIbLb0EE(ptr noundef nonnull align 8 dereferenceable(16) %5, ptr noundef nonnull align 8 dereferenceable(32) %6)
  ret void
}

; Function Attrs: mustprogress nounwind uwtable
define internal noundef zeroext i1 @_ZNSt14_Function_base13_Base_managerIZN11OpenImageIO6v3_1_0L12mad_impl_iccIhhEEbRNS2_8ImageBufERKS4_NS2_4spanIKfLm18446744073709551615EEESA_NS2_3ROIEiEUlSB_E_E21_M_not_empty_functionISC_EEbRKT_(ptr noundef nonnull align 8 dereferenceable(32) %0) #8 align 2 {
  %2 = alloca ptr, align 8
  store ptr %0, ptr %2, align 8, !tbaa !132
  ret i1 true
}

; Function Attrs: mustprogress nounwind uwtable
define linkonce_odr void @_ZNSt14_Function_baseC2Ev(ptr noundef nonnull align 8 dereferenceable(24) %0) unnamed_addr #8 comdat align 2 {
  %2 = alloca ptr, align 8
  store ptr %0, ptr %2, align 8, !tbaa !776
  %3 = load ptr, ptr %2, align 8
  %4 = getelementptr inbounds nuw %"class.std::_Function_base", ptr %3, i32 0, i32 0
  store ptr null, ptr %4, align 8, !tbaa !13
  %5 = getelementptr inbounds nuw %"class.std::_Function_base", ptr %3, i32 0, i32 1
  store ptr null, ptr %5, align 8, !tbaa !775
  ret void
}

; Function Attrs: mustprogress nounwind uwtable
define linkonce_odr void @_ZNSt14_Function_baseD2Ev(ptr noundef nonnull align 8 dereferenceable(24) %0) unnamed_addr #8 comdat align 2 personality ptr @__gxx_personality_v0 {
  %2 = alloca ptr, align 8
  store ptr %0, ptr %2, align 8, !tbaa !776
  %3 = load ptr, ptr %2, align 8
  %4 = getelementptr inbounds nuw %"class.std::_Function_base", ptr %3, i32 0, i32 1
  %5 = load ptr, ptr %4, align 8, !tbaa !775
  %6 = icmp ne ptr %5, null
  br i1 %6, label %7, label %14

7:                                                ; preds = %1
  %8 = getelementptr inbounds nuw %"class.std::_Function_base", ptr %3, i32 0, i32 1
  %9 = load ptr, ptr %8, align 8, !tbaa !775
  %10 = getelementptr inbounds nuw %"class.std::_Function_base", ptr %3, i32 0, i32 0
  %11 = getelementptr inbounds nuw %"class.std::_Function_base", ptr %3, i32 0, i32 0
  %12 = invoke noundef zeroext i1 %9(ptr noundef nonnull align 8 dereferenceable(16) %10, ptr noundef nonnull align 8 dereferenceable(16) %11, i32 noundef 3)
          to label %13 unwind label %15

13:                                               ; preds = %7
  br label %14

14:                                               ; preds = %13, %1
  ret void

15:                                               ; preds = %7
  %16 = landingpad { ptr, i32 }
          catch ptr null
  %17 = extractvalue { ptr, i32 } %16, 0
  call void @__clang_call_terminate(ptr %17) #24
  unreachable
}

; Function Attrs: mustprogress uwtable
define internal void @_ZNSt8functionIFvN11OpenImageIO6v3_1_03ROIEEEC2IZNS1_L12mad_impl_iccIhhEEbRNS1_8ImageBufERKS7_NS1_4spanIKfLm18446744073709551615EEESD_S2_iEUlS2_E_vEEOT_(ptr noundef nonnull align 8 dereferenceable(32) %0, ptr noundef nonnull align 8 dereferenceable(32) %1) unnamed_addr #6 align 2 personality ptr @__gxx_personality_v0 {
  %3 = alloca ptr, align 8
  %4 = alloca ptr, align 8
  %5 = alloca ptr, align 8
  %6 = alloca i32, align 4
  store ptr %0, ptr %3, align 8, !tbaa !747
  store ptr %1, ptr %4, align 8, !tbaa !132
  %7 = load ptr, ptr %3, align 8
  %8 = getelementptr inbounds i8, ptr %7, i64 0
  call void @llvm.memset.p0.i64(ptr align 8 %8, i8 0, i64 24, i1 false)
  call void @_ZNSt14_Function_baseC2Ev(ptr noundef nonnull align 8 dereferenceable(24) %7) #3
  %9 = getelementptr inbounds nuw %"class.std::function", ptr %7, i32 0, i32 1
  store ptr null, ptr %9, align 8, !tbaa !772
  %10 = load ptr, ptr %4, align 8, !tbaa !132
  %11 = call noundef zeroext i1 @_ZNSt14_Function_base13_Base_managerIZN11OpenImageIO6v3_1_0L12mad_impl_iccIhhEEbRNS2_8ImageBufERKS4_NS2_4spanIKfLm18446744073709551615EEESA_NS2_3ROIEiEUlSB_E_E21_M_not_empty_functionISC_EEbRKT_(ptr noundef nonnull align 8 dereferenceable(32) %10) #3
  br i1 %11, label %12, label %22

12:                                               ; preds = %2
  %13 = getelementptr inbounds nuw %"class.std::_Function_base", ptr %7, i32 0, i32 0
  %14 = load ptr, ptr %4, align 8, !tbaa !132
  invoke void @_ZNSt14_Function_base13_Base_managerIZN11OpenImageIO6v3_1_0L12mad_impl_iccIhhEEbRNS2_8ImageBufERKS4_NS2_4spanIKfLm18446744073709551615EEESA_NS2_3ROIEiEUlSB_E_E15_M_init_functorISC_EEvRSt9_Any_dataOT_(ptr noundef nonnull align 8 dereferenceable(16) %13, ptr noundef nonnull align 8 dereferenceable(32) %14)
          to label %15 unwind label %18

15:                                               ; preds = %12
  %16 = getelementptr inbounds nuw %"class.std::function", ptr %7, i32 0, i32 1
  store ptr @_ZNSt17_Function_handlerIFvN11OpenImageIO6v3_1_03ROIEEZNS1_L12mad_impl_iccIhhEEbRNS1_8ImageBufERKS5_NS1_4spanIKfLm18446744073709551615EEESB_S2_iEUlS2_E_E9_M_invokeERKSt9_Any_dataOS2_, ptr %16, align 8, !tbaa !772
  %17 = getelementptr inbounds nuw %"class.std::_Function_base", ptr %7, i32 0, i32 1
  store ptr @_ZNSt17_Function_handlerIFvN11OpenImageIO6v3_1_03ROIEEZNS1_L12mad_impl_iccIhhEEbRNS1_8ImageBufERKS5_NS1_4spanIKfLm18446744073709551615EEESB_S2_iEUlS2_E_E10_M_managerERSt9_Any_dataRKSE_St18_Manager_operation, ptr %17, align 8, !tbaa !775
  br label %22

18:                                               ; preds = %12
  %19 = landingpad { ptr, i32 }
          cleanup
  %20 = extractvalue { ptr, i32 } %19, 0
  store ptr %20, ptr %5, align 8
  %21 = extractvalue { ptr, i32 } %19, 1
  store i32 %21, ptr %6, align 4
  call void @_ZNSt14_Function_baseD2Ev(ptr noundef nonnull align 8 dereferenceable(24) %7) #3
  br label %23

22:                                               ; preds = %15, %2
  ret void

23:                                               ; preds = %18
  %24 = load ptr, ptr %5, align 8
  %25 = load i32, ptr %6, align 4
  %26 = insertvalue { ptr, i32 } poison, ptr %24, 0
  %27 = insertvalue { ptr, i32 } %26, i32 %25, 1
  resume { ptr, i32 } %27
}

; Function Attrs: mustprogress nounwind uwtable
define linkonce_odr void @_ZN11OpenImageIO6v3_1_06paroptC2EiNS1_8SplitDirEm(ptr noundef nonnull align 8 dereferenceable(25) %0, i32 noundef %1, i16 noundef signext %2, i64 noundef %3) unnamed_addr #8 comdat align 2 {
  %5 = alloca ptr, align 8
  %6 = alloca i32, align 4
  %7 = alloca i16, align 2
  %8 = alloca i64, align 8
  store ptr %0, ptr %5, align 8, !tbaa !763
  store i32 %1, ptr %6, align 4, !tbaa !10
  store i16 %2, ptr %7, align 2, !tbaa !749
  store i64 %3, ptr %8, align 8, !tbaa !30
  %9 = load ptr, ptr %5, align 8
  %10 = getelementptr inbounds nuw %"class.OpenImageIO::v3_1_0::paropt", ptr %9, i32 0, i32 0
  %11 = load i32, ptr %6, align 4, !tbaa !10
  store i32 %11, ptr %10, align 8, !tbaa !765
  %12 = getelementptr inbounds nuw %"class.OpenImageIO::v3_1_0::paropt", ptr %9, i32 0, i32 1
  store i16 0, ptr %12, align 4, !tbaa !767
  %13 = getelementptr inbounds nuw %"class.OpenImageIO::v3_1_0::paropt", ptr %9, i32 0, i32 2
  %14 = load i16, ptr %7, align 2, !tbaa !749
  store i16 %14, ptr %13, align 2, !tbaa !768
  %15 = getelementptr inbounds nuw %"class.OpenImageIO::v3_1_0::paropt", ptr %9, i32 0, i32 3
  %16 = load i64, ptr %8, align 8, !tbaa !30
  store i64 %16, ptr %15, align 8, !tbaa !769
  %17 = getelementptr inbounds nuw %"class.OpenImageIO::v3_1_0::paropt", ptr %9, i32 0, i32 4
  store ptr null, ptr %17, align 8, !tbaa !770
  %18 = getelementptr inbounds nuw %"class.OpenImageIO::v3_1_0::paropt", ptr %9, i32 0, i32 5
  store i8 0, ptr %18, align 8, !tbaa !771
  ret void
}

; Function Attrs: mustprogress uwtable
define internal noundef zeroext i1 @_ZN11OpenImageIO6v3_1_0L12mad_impl_iccIhhEEbRNS0_8ImageBufERKS2_NS0_4spanIKfLm18446744073709551615EEES8_NS0_3ROIEi(ptr noundef nonnull align 8 dereferenceable(16) %0, ptr noundef nonnull align 8 dereferenceable(16) %1, ptr %2, i64 %3, ptr %4, i64 %5, ptr noundef byval(%"struct.OpenImageIO::v3_1_0::ROI") align 8 %6, i32 noundef %7) #6 personality ptr @__gxx_personality_v0 {
  %9 = alloca %"class.OpenImageIO::v3_1_0::span", align 8
  %10 = alloca %"class.OpenImageIO::v3_1_0::span", align 8
  %11 = alloca ptr, align 8
  %12 = alloca ptr, align 8
  %13 = alloca i32, align 4
  %14 = alloca %"struct.OpenImageIO::v3_1_0::ROI", align 8
  %15 = alloca %"class.OpenImageIO::v3_1_0::paropt", align 8
  %16 = alloca %"class.std::function", align 8
  %17 = alloca %class.anon.182, align 8
  %18 = alloca ptr, align 8
  %19 = alloca i32, align 4
  %20 = getelementptr inbounds nuw { ptr, i64 }, ptr %9, i32 0, i32 0
  store ptr %2, ptr %20, align 8
  %21 = getelementptr inbounds nuw { ptr, i64 }, ptr %9, i32 0, i32 1
  store i64 %3, ptr %21, align 8
  %22 = getelementptr inbounds nuw { ptr, i64 }, ptr %10, i32 0, i32 0
  store ptr %4, ptr %22, align 8
  %23 = getelementptr inbounds nuw { ptr, i64 }, ptr %10, i32 0, i32 1
  store i64 %5, ptr %23, align 8
  store ptr %0, ptr %11, align 8, !tbaa !8
  store ptr %1, ptr %12, align 8, !tbaa !8
  store i32 %7, ptr %13, align 4, !tbaa !10
  call void @llvm.memcpy.p0.p0.i64(ptr align 4 %14, ptr align 8 %6, i64 32, i1 false), !tbaa.struct !20
  %24 = load i32, ptr %13, align 4, !tbaa !10
  call void @_ZN11OpenImageIO6v3_1_06paroptC2EiNS1_8SplitDirEm(ptr noundef nonnull align 8 dereferenceable(25) %15, i32 noundef %24, i16 noundef signext 1, i64 noundef 1024) #3
  call void @llvm.lifetime.start.p0(i64 32, ptr %17) #3
  %25 = getelementptr inbounds nuw %class.anon.182, ptr %17, i32 0, i32 0
  %26 = load ptr, ptr %11, align 8, !tbaa !8
  store ptr %26, ptr %25, align 8, !tbaa !8
  %27 = getelementptr inbounds nuw %class.anon.182, ptr %17, i32 0, i32 1
  %28 = load ptr, ptr %12, align 8, !tbaa !8
  store ptr %28, ptr %27, align 8, !tbaa !8
  %29 = getelementptr inbounds nuw %class.anon.182, ptr %17, i32 0, i32 2
  store ptr %9, ptr %29, align 8, !tbaa !69
  %30 = getelementptr inbounds nuw %class.anon.182, ptr %17, i32 0, i32 3
  store ptr %10, ptr %30, align 8, !tbaa !69
  call void @_ZNSt8functionIFvN11OpenImageIO6v3_1_03ROIEEEC2IZNS1_L12mad_impl_iccIhhEEbRNS1_8ImageBufERKS7_NS1_4spanIKfLm18446744073709551615EEESD_S2_iEUlS2_E_vEEOT_(ptr noundef nonnull align 8 dereferenceable(32) %16, ptr noundef nonnull align 8 dereferenceable(32) %17)
  invoke void @_ZN11OpenImageIO6v3_1_012ImageBufAlgo14parallel_imageENS0_3ROIENS0_6paroptESt8functionIFvS2_EE(ptr noundef byval(%"struct.OpenImageIO::v3_1_0::ROI") align 8 %14, ptr noundef byval(%"class.OpenImageIO::v3_1_0::paropt") align 8 %15, ptr noundef %16)
          to label %31 unwind label %32

31:                                               ; preds = %8
  call void @_ZNSt14_Function_baseD2Ev(ptr noundef nonnull align 8 dereferenceable(32) %16) #3
  call void @llvm.lifetime.end.p0(i64 32, ptr %17) #3
  ret i1 true

32:                                               ; preds = %8
  %33 = landingpad { ptr, i32 }
          cleanup
  %34 = extractvalue { ptr, i32 } %33, 0
  store ptr %34, ptr %18, align 8
  %35 = extractvalue { ptr, i32 } %33, 1
  store i32 %35, ptr %19, align 4
  call void @_ZNSt14_Function_baseD2Ev(ptr noundef nonnull align 8 dereferenceable(32) %16) #3
  call void @llvm.lifetime.end.p0(i64 32, ptr %17) #3
  br label %36

36:                                               ; preds = %32
  %37 = load ptr, ptr %18, align 8
  %38 = load i32, ptr %19, align 4
  %39 = insertvalue { ptr, i32 } poison, ptr %37, 0
  %40 = insertvalue { ptr, i32 } %39, i32 %38, 1
  resume { ptr, i32 } %40
}